target datalayout = "e-m:e-p270:32:32-p271:32:32-p272:64:64-i64:64-i128:128-f80:128-n8:16:32:64-S128"
target triple = "x86_64-pc-linux-gnu"

%union.anon.3 = type { double }
%struct.VariableStatData = type { ptr, ptr, ptr, ptr, i32, i32, i32, i8, i8 }
%struct.FunctionCallInfoBaseData = type { ptr, ptr, ptr, i32, i8, i16, [0 x %struct.NullableDatum] }
%struct.NullableDatum = type { i64, i8 }
%struct.FormData_pg_statistic = type { i32, i16, i8, float, i32, float, i16, i16, i16, i16, i16, i32, i32, i32, i32, i32, i32, i32, i32, i32, i32 }
%struct.HeapTupleData = type { i32, %struct.ItemPointerData, i32, ptr }
%struct.ItemPointerData = type { %struct.BlockIdData, i16 }
%struct.BlockIdData = type { i16, i16 }
%struct.HeapTupleHeaderData = type { %union.anon.4, %struct.ItemPointerData, i16, i16, i8, [0 x i8] }
%union.anon.4 = type { %struct.HeapTupleFields }
%struct.HeapTupleFields = type { i32, i32, %union.anon.5 }
%union.anon.5 = type { i32 }
%union.anon.6 = type { i64 }

; Function Attrs: inlinehint nounwind uwtable
define internal i64 @Int64GetDatum(i64 noundef %0) #1 {
  %2 = alloca i64, align 8
  store i64 %0, ptr %2, align 8
  %3 = load i64, ptr %2, align 8
  ret i64 %3
}

; Function Attrs: inlinehint nounwind uwtable
define internal i64 @DatumGetInt64(i64 noundef %0) #1 {
  %2 = alloca i64, align 8
  store i64 %0, ptr %2, align 8
  %3 = load i64, ptr %2, align 8
  ret i64 %3
}

; Function Attrs: inlinehint nounwind uwtable
define internal i64 @Float8GetDatum(double noundef %0) #1 {
  %2 = alloca double, align 8
  %3 = alloca %union.anon.3, align 8
  store double %0, ptr %2, align 8
  call void @llvm.lifetime.start.p0(i64 8, ptr %3) #10
  %4 = load double, ptr %2, align 8
  store double %4, ptr %3, align 8
  %5 = load i64, ptr %3, align 8
  %6 = call i64 @Int64GetDatum(i64 noundef %5)
  call void @llvm.lifetime.end.p0(i64 8, ptr %3) #10
  ret i64 %6
}

; Function Attrs: inlinehint nounwind uwtable
define internal double @DatumGetFloat8(i64 noundef %0) #1 {
  %2 = alloca i64, align 8
  %3 = alloca %union.anon.6, align 8
  store i64 %0, ptr %2, align 8
  call void @llvm.lifetime.start.p0(i64 8, ptr %3) #10
  %4 = load i64, ptr %2, align 8
  %5 = call i64 @DatumGetInt64(i64 noundef %4)
  store i64 %5, ptr %3, align 8
  %6 = load double, ptr %3, align 8
  call void @llvm.lifetime.end.p0(i64 8, ptr %3) #10
  ret double %6
}

; Function Attrs: inlinehint nounwind uwtable
define internal i64 @Int16GetDatum(i16 noundef signext %0) #1 {
  %2 = alloca i16, align 2
  store i16 %0, ptr %2, align 2
  %3 = load i16, ptr %2, align 2
  %4 = sext i16 %3 to i64
  ret i64 %4
}

; Function Attrs: inlinehint nounwind uwtable
define internal i64 @ObjectIdGetDatum(i32 noundef %0) #1 {
  %2 = alloca i32, align 4
  store i32 %0, ptr %2, align 4
  %3 = load i32, ptr %2, align 4
  %4 = zext i32 %3 to i64
  ret i64 %4
}

; Function Attrs: inlinehint nounwind uwtable
define internal i64 @PointerGetDatum(ptr noundef %0) #1 {
  %2 = alloca ptr, align 8
  store ptr %0, ptr %2, align 8
  %3 = load ptr, ptr %2, align 8
  %4 = ptrtoint ptr %3 to i64
  ret i64 %4
}

; Function Attrs: inlinehint nounwind uwtable
define internal ptr @GETSTRUCT(ptr noundef %0) #1 {
  %2 = alloca ptr, align 8
  store ptr %0, ptr %2, align 8
  %3 = load ptr, ptr %2, align 8
  %4 = getelementptr inbounds nuw %struct.HeapTupleData, ptr %3, i32 0, i32 3
  %5 = load ptr, ptr %4, align 8
  %6 = load ptr, ptr %2, align 8
  %7 = getelementptr inbounds nuw %struct.HeapTupleData, ptr %6, i32 0, i32 3
  %8 = load ptr, ptr %7, align 8
  %9 = getelementptr inbounds nuw %struct.HeapTupleHeaderData, ptr %8, i32 0, i32 4
  %10 = load i8, ptr %9, align 2
  %11 = zext i8 %10 to i32
  %12 = sext i32 %11 to i64
  %13 = getelementptr inbounds i8, ptr %5, i64 %12
  ret ptr %13
}

; Function Attrs: inlinehint nounwind uwtable
define internal signext i16 @DatumGetInt16(i64 noundef %0) #1 {
  %2 = alloca i64, align 8
  store i64 %0, ptr %2, align 8
  %3 = load i64, ptr %2, align 8
  %4 = trunc i64 %3 to i16
  ret i16 %4
}

; Function Attrs: inlinehint nounwind uwtable
define internal i32 @DatumGetObjectId(i64 noundef %0) #1 {
  %2 = alloca i64, align 8
  store i64 %0, ptr %2, align 8
  %3 = load i64, ptr %2, align 8
  %4 = trunc i64 %3 to i32
  ret i32 %4
}

; Function Attrs: inlinehint nounwind uwtable
define internal ptr @DatumGetPointer(i64 noundef %0) #1 {
  %2 = alloca i64, align 8
  store i64 %0, ptr %2, align 8
  %3 = load i64, ptr %2, align 8
  %4 = inttoptr i64 %3 to ptr
  ret ptr %4
}

; Function Attrs: nounwind uwtable
define dso_local i64 @neqjoinsel(ptr noundef %0) #0 {
  %2 = alloca ptr, align 8
  %3 = alloca ptr, align 8
  %4 = alloca i32, align 4
  %5 = alloca ptr, align 8
  %6 = alloca i32, align 4
  %7 = alloca ptr, align 8
  %8 = alloca i32, align 4
  %9 = alloca double, align 8
  %10 = alloca %struct.VariableStatData, align 8
  %11 = alloca %struct.VariableStatData, align 8
  %12 = alloca i8, align 1
  %13 = alloca ptr, align 8
  %14 = alloca double, align 8
  %15 = alloca i32, align 4
  store ptr %0, ptr %2, align 8
  call void @llvm.lifetime.start.p0(i64 8, ptr %3) #10
  %16 = load ptr, ptr %2, align 8
  %17 = getelementptr inbounds nuw %struct.FunctionCallInfoBaseData, ptr %16, i32 0, i32 6
  %18 = getelementptr inbounds [0 x %struct.NullableDatum], ptr %17, i64 0, i64 0
  %19 = getelementptr inbounds nuw %struct.NullableDatum, ptr %18, i32 0, i32 0
  %20 = load i64, ptr %19, align 8
  %21 = call ptr @DatumGetPointer(i64 noundef %20)
  store ptr %21, ptr %3, align 8
  call void @llvm.lifetime.start.p0(i64 4, ptr %4) #10
  %22 = load ptr, ptr %2, align 8
  %23 = getelementptr inbounds nuw %struct.FunctionCallInfoBaseData, ptr %22, i32 0, i32 6
  %24 = getelementptr inbounds [0 x %struct.NullableDatum], ptr %23, i64 0, i64 1
  %25 = getelementptr inbounds nuw %struct.NullableDatum, ptr %24, i32 0, i32 0
  %26 = load i64, ptr %25, align 8
  %27 = call i32 @DatumGetObjectId(i64 noundef %26)
  store i32 %27, ptr %4, align 4
  call void @llvm.lifetime.start.p0(i64 8, ptr %5) #10
  %28 = load ptr, ptr %2, align 8
  %29 = getelementptr inbounds nuw %struct.FunctionCallInfoBaseData, ptr %28, i32 0, i32 6
  %30 = getelementptr inbounds [0 x %struct.NullableDatum], ptr %29, i64 0, i64 2
  %31 = getelementptr inbounds nuw %struct.NullableDatum, ptr %30, i32 0, i32 0
  %32 = load i64, ptr %31, align 8
  %33 = call ptr @DatumGetPointer(i64 noundef %32)
  store ptr %33, ptr %5, align 8
  call void @llvm.lifetime.start.p0(i64 4, ptr %6) #10
  %34 = load ptr, ptr %2, align 8
  %35 = getelementptr inbounds nuw %struct.FunctionCallInfoBaseData, ptr %34, i32 0, i32 6
  %36 = getelementptr inbounds [0 x %struct.NullableDatum], ptr %35, i64 0, i64 3
  %37 = getelementptr inbounds nuw %struct.NullableDatum, ptr %36, i32 0, i32 0
  %38 = load i64, ptr %37, align 8
  %39 = call signext i16 @DatumGetInt16(i64 noundef %38)
  %40 = sext i16 %39 to i32
  store i32 %40, ptr %6, align 4
  call void @llvm.lifetime.start.p0(i64 8, ptr %7) #10
  %41 = load ptr, ptr %2, align 8
  %42 = getelementptr inbounds nuw %struct.FunctionCallInfoBaseData, ptr %41, i32 0, i32 6
  %43 = getelementptr inbounds [0 x %struct.NullableDatum], ptr %42, i64 0, i64 4
  %44 = getelementptr inbounds nuw %struct.NullableDatum, ptr %43, i32 0, i32 0
  %45 = load i64, ptr %44, align 8
  %46 = call ptr @DatumGetPointer(i64 noundef %45)
  store ptr %46, ptr %7, align 8
  call void @llvm.lifetime.start.p0(i64 4, ptr %8) #10
  %47 = load ptr, ptr %2, align 8
  %48 = getelementptr inbounds nuw %struct.FunctionCallInfoBaseData, ptr %47, i32 0, i32 3
  %49 = load i32, ptr %48, align 8
  store i32 %49, ptr %8, align 4
  call void @llvm.lifetime.start.p0(i64 8, ptr %9) #10
  %50 = load i32, ptr %6, align 4
  %51 = icmp eq i32 %50, 4
  br i1 %51, label %55, label %52

52:                                               ; preds = %1
  %53 = load i32, ptr %6, align 4
  %54 = icmp eq i32 %53, 5
  br i1 %54, label %55, label %105

55:                                               ; preds = %52, %1
  call void @llvm.lifetime.start.p0(i64 48, ptr %10) #10
  call void @llvm.lifetime.start.p0(i64 48, ptr %11) #10
  call void @llvm.lifetime.start.p0(i64 1, ptr %12) #10
  call void @llvm.lifetime.start.p0(i64 8, ptr %13) #10
  call void @llvm.lifetime.start.p0(i64 8, ptr %14) #10
  %56 = load ptr, ptr %3, align 8
  %57 = load ptr, ptr %5, align 8
  %58 = load ptr, ptr %7, align 8
  call void @get_join_variables(ptr noundef %56, ptr noundef %57, ptr noundef %58, ptr noundef %10, ptr noundef %11, ptr noundef %12)
  %59 = load i8, ptr %12, align 1, !range !4, !noundef !5
  %60 = trunc i8 %59 to i1
  br i1 %60, label %61, label %64

61:                                               ; preds = %55
  %62 = getelementptr inbounds nuw %struct.VariableStatData, ptr %11, i32 0, i32 2
  %63 = load ptr, ptr %62, align 8
  br label %67

64:                                               ; preds = %55
  %65 = getelementptr inbounds nuw %struct.VariableStatData, ptr %10, i32 0, i32 2
  %66 = load ptr, ptr %65, align 8
  br label %67

67:                                               ; preds = %64, %61
  %68 = phi ptr [ %63, %61 ], [ %66, %64 ]
  store ptr %68, ptr %13, align 8
  %69 = load ptr, ptr %13, align 8
  %70 = icmp ne ptr %69, null
  br i1 %70, label %71, label %77

71:                                               ; preds = %67
  %72 = load ptr, ptr %13, align 8
  %73 = call ptr @GETSTRUCT(ptr noundef %72)
  %74 = getelementptr inbounds nuw %struct.FormData_pg_statistic, ptr %73, i32 0, i32 3
  %75 = load float, ptr %74, align 4
  %76 = fpext float %75 to double
  store double %76, ptr %14, align 8
  br label %78

77:                                               ; preds = %67
  store double 0.000000e+00, ptr %14, align 8
  br label %78

78:                                               ; preds = %77, %71
  br label %79

79:                                               ; preds = %78
  %80 = getelementptr inbounds nuw %struct.VariableStatData, ptr %10, i32 0, i32 2
  %81 = load ptr, ptr %80, align 8
  %82 = icmp ne ptr %81, null
  br i1 %82, label %83, label %88

83:                                               ; preds = %79
  %84 = getelementptr inbounds nuw %struct.VariableStatData, ptr %10, i32 0, i32 3
  %85 = load ptr, ptr %84, align 8
  %86 = getelementptr inbounds nuw %struct.VariableStatData, ptr %10, i32 0, i32 2
  %87 = load ptr, ptr %86, align 8
  call void %85(ptr noundef %87)
  br label %88

88:                                               ; preds = %83, %79
  br label %89

89:                                               ; preds = %88
  br label %90

90:                                               ; preds = %89
  br label %91

91:                                               ; preds = %90
  %92 = getelementptr inbounds nuw %struct.VariableStatData, ptr %11, i32 0, i32 2
  %93 = load ptr, ptr %92, align 8
  %94 = icmp ne ptr %93, null
  br i1 %94, label %95, label %100

95:                                               ; preds = %91
  %96 = getelementptr inbounds nuw %struct.VariableStatData, ptr %11, i32 0, i32 3
  %97 = load ptr, ptr %96, align 8
  %98 = getelementptr inbounds nuw %struct.VariableStatData, ptr %11, i32 0, i32 2
  %99 = load ptr, ptr %98, align 8
  call void %97(ptr noundef %99)
  br label %100

100:                                              ; preds = %95, %91
  br label %101

101:                                              ; preds = %100
  br label %102

102:                                              ; preds = %101
  %103 = load double, ptr %14, align 8
  %104 = fsub double 1.000000e+00, %103
  store double %104, ptr %9, align 8
  call void @llvm.lifetime.end.p0(i64 8, ptr %14) #10
  call void @llvm.lifetime.end.p0(i64 8, ptr %13) #10
  call void @llvm.lifetime.end.p0(i64 1, ptr %12) #10
  call void @llvm.lifetime.end.p0(i64 48, ptr %11) #10
  call void @llvm.lifetime.end.p0(i64 48, ptr %10) #10
  br label %129

105:                                              ; preds = %52
  call void @llvm.lifetime.start.p0(i64 4, ptr %15) #10
  %106 = load i32, ptr %4, align 4
  %107 = call i32 @get_negator(i32 noundef %106)
  store i32 %107, ptr %15, align 4
  %108 = load i32, ptr %15, align 4
  %109 = icmp ne i32 %108, 0
  br i1 %109, label %110, label %125

110:                                              ; preds = %105
  %111 = load i32, ptr %8, align 4
  %112 = load ptr, ptr %3, align 8
  %113 = call i64 @PointerGetDatum(ptr noundef %112)
  %114 = load i32, ptr %15, align 4
  %115 = call i64 @ObjectIdGetDatum(i32 noundef %114)
  %116 = load ptr, ptr %5, align 8
  %117 = call i64 @PointerGetDatum(ptr noundef %116)
  %118 = load i32, ptr %6, align 4
  %119 = trunc i32 %118 to i16
  %120 = call i64 @Int16GetDatum(i16 noundef signext %119)
  %121 = load ptr, ptr %7, align 8
  %122 = call i64 @PointerGetDatum(ptr noundef %121)
  %123 = call i64 @DirectFunctionCall5Coll(ptr noundef @eqjoinsel, i32 noundef %111, i64 noundef %113, i64 noundef %115, i64 noundef %117, i64 noundef %120, i64 noundef %122)
  %124 = call double @DatumGetFloat8(i64 noundef %123)
  store double %124, ptr %9, align 8
  br label %126

125:                                              ; preds = %105
  store double 5.000000e-03, ptr %9, align 8
  br label %126

126:                                              ; preds = %125, %110
  %127 = load double, ptr %9, align 8
  %128 = fsub double 1.000000e+00, %127
  store double %128, ptr %9, align 8
  call void @llvm.lifetime.end.p0(i64 4, ptr %15) #10
  br label %129

129:                                              ; preds = %126, %102
  %130 = load double, ptr %9, align 8
  %131 = call i64 @Float8GetDatum(double noundef %130)
  call void @llvm.lifetime.end.p0(i64 8, ptr %9) #10
  call void @llvm.lifetime.end.p0(i64 4, ptr %8) #10
  call void @llvm.lifetime.end.p0(i64 8, ptr %7) #10
  call void @llvm.lifetime.end.p0(i64 4, ptr %6) #10
  call void @llvm.lifetime.end.p0(i64 8, ptr %5) #10
  call void @llvm.lifetime.end.p0(i64 4, ptr %4) #10
  call void @llvm.lifetime.end.p0(i64 8, ptr %3) #10
  ret i64 %131
}