; Function Attrs: nounwind uwtable
define dso_local i64 @neqjoinsel(ptr noundef readonly captures(none) %0) local_unnamed_addr #0 {
  %2 = alloca %struct.VariableStatData, align 8
  %3 = alloca %struct.VariableStatData, align 8
  %4 = alloca i8, align 1
  %5 = getelementptr inbounds nuw i8, ptr %0, i64 32
  %6 = load i64, ptr %5, align 8
  %7 = getelementptr inbounds nuw i8, ptr %0, i64 64
  %8 = load i64, ptr %7, align 8
  %9 = getelementptr inbounds nuw i8, ptr %0, i64 80
  %10 = load i64, ptr %9, align 8
  %11 = getelementptr inbounds nuw i8, ptr %0, i64 96
  %12 = load i64, ptr %11, align 8
  %13 = getelementptr inbounds nuw i8, ptr %0, i64 24
  %14 = load i32, ptr %13, align 8
  %15 = and i64 %10, 65534
  %or.cond = icmp eq i64 %15, 4
  br i1 %or.cond, label %16, label %46

16:                                               ; preds = %1
  %17 = inttoptr i64 %12 to ptr
  %18 = inttoptr i64 %8 to ptr
  %19 = inttoptr i64 %6 to ptr
  call void @llvm.lifetime.start.p0(i64 48, ptr nonnull %2) #12
  call void @llvm.lifetime.start.p0(i64 48, ptr nonnull %3) #12
  call void @llvm.lifetime.start.p0(i64 1, ptr nonnull %4) #12
  call void @get_join_variables(ptr noundef %19, ptr noundef %18, ptr noundef %17, ptr noundef nonnull %2, ptr noundef nonnull %3, ptr noundef nonnull %4)
  %20 = load i8, ptr %4, align 1, !range !4, !noundef !5
  %21 = trunc nuw i8 %20 to i1
  %22 = getelementptr inbounds nuw i8, ptr %3, i64 16
  %23 = load ptr, ptr %22, align 8
  %24 = getelementptr inbounds nuw i8, ptr %2, i64 16
  %25 = load ptr, ptr %24, align 8
  %26 = select i1 %21, ptr %23, ptr %25
  %.not29 = icmp eq ptr %26, null
  br i1 %.not29, label %36, label %27

27:                                               ; preds = %16
  %28 = getelementptr i8, ptr %26, i64 16
  %.val = load ptr, ptr %28, align 8
  %29 = getelementptr inbounds nuw i8, ptr %.val, i64 22
  %30 = load i8, ptr %29, align 2
  %31 = zext i8 %30 to i64
  %32 = getelementptr inbounds nuw i8, ptr %.val, i64 %31
  %33 = getelementptr inbounds nuw i8, ptr %32, i64 8
  %34 = load float, ptr %33, align 4
  %35 = fpext float %34 to double
  br label %36

36:                                               ; preds = %16, %27
  %.024 = phi double [ %35, %27 ], [ 0.000000e+00, %16 ]
  %.not30 = icmp eq ptr %25, null
  br i1 %.not30, label %40, label %37

37:                                               ; preds = %36
  %38 = getelementptr inbounds nuw i8, ptr %2, i64 24
  %39 = load ptr, ptr %38, align 8
  call void %39(ptr noundef nonnull %25) #12
  %.pre = load ptr, ptr %22, align 8
  br label %40

40:                                               ; preds = %36, %37
  %41 = phi ptr [ %23, %36 ], [ %.pre, %37 ]
  %.not31 = icmp eq ptr %41, null
  br i1 %.not31, label %45, label %42

42:                                               ; preds = %40
  %43 = getelementptr inbounds nuw i8, ptr %3, i64 24
  %44 = load ptr, ptr %43, align 8
  call void %44(ptr noundef nonnull %41) #12
  br label %45

45:                                               ; preds = %42, %40
  call void @llvm.lifetime.end.p0(i64 1, ptr nonnull %4) #12
  call void @llvm.lifetime.end.p0(i64 48, ptr nonnull %3) #12
  call void @llvm.lifetime.end.p0(i64 48, ptr nonnull %2) #12
  br label %56

46:                                               ; preds = %1
  %47 = getelementptr inbounds nuw i8, ptr %0, i64 48
  %48 = load i64, ptr %47, align 8
  %49 = trunc i64 %48 to i32
  %50 = tail call i32 @get_negator(i32 noundef %49) #12
  %.not = icmp eq i32 %50, 0
  br i1 %.not, label %56, label %51

51:                                               ; preds = %46
  %52 = zext i32 %50 to i64
  %sext = shl i64 %10, 48
  %53 = ashr exact i64 %sext, 48
  %54 = tail call i64 @DirectFunctionCall5Coll(ptr noundef nonnull @eqjoinsel, i32 noundef %14, i64 noundef %6, i64 noundef %52, i64 noundef %8, i64 noundef %53, i64 noundef %12) #12
  %55 = bitcast i64 %54 to double
  br label %56

56:                                               ; preds = %51, %46, %45
  %.024.pn = phi double [ %.024, %45 ], [ %55, %51 ], [ 5.000000e-03, %46 ]
  %.0 = fsub double 1.000000e+00, %.024.pn
  %57 = bitcast double %.0 to i64
  ret i64 %57
}